Certificate:
    Data:
        Version: 3 (0x2)
        Serial Number: 1 (0x1)
    Signature Algorithm: sha1WithRSAEncryption
        Issuer: CN=Ravis Root Certificate Authority, ST=London, C=UK/emailAddress=rrajani@acunu.com, O=Acunu, OU=Dashboards
        Validity
            Not Before: Oct 29 15:29:01 2013 GMT
            Not After : Oct 28 15:29:01 2018 GMT
        Subject: CN=localhost, ST=London, C=UK/emailAddress=rrajani@acunu.com, O=Acunu, OU=Dashboards
        Subject Public Key Info:
            Public Key Algorithm: rsaEncryption
                Public-Key: (1024 bit)
                Modulus:
                    00:f4:23:f6:f7:82:62:e1:14:5f:21:5f:2f:6d:b5:
                    7d:da:c1:2c:86:a1:69:06:7b:a3:60:f7:b8:b0:7f:
                    e2:f5:4f:55:6a:68:84:ee:a3:cb:56:54:eb:42:fa:
                    46:18:40:bf:ac:5f:f1:be:42:b3:0d:9a:ea:c6:52:
                    ce:2f:5b:ee:16:f0:f1:77:2b:c6:8e:19:f0:cb:0c:
                    35:c5:6e:27:38:95:65:72:ad:ff:8b:7e:51:86:93:
                    73:49:44:7a:8c:b2:11:ab:40:43:d3:ca:2b:ad:72:
                    9a:83:d8:86:4f:d6:ae:5c:ec:b0:67:7b:b2:46:42:
                    b6:da:a3:6c:42:16:32:ff:7f
                Exponent: 65537 (0x10001)
        X509v3 extensions:
            X509v3 Basic Constraints: 
                CA:FALSE
            X509v3 Key Usage: 
                Digital Signature, Non Repudiation, Key Encipherment
            X509v3 Subject Alternative Name: 
                DNS:localhost
    Signature Algorithm: sha1WithRSAEncryption
         23:66:ef:86:09:08:24:6d:be:4b:7a:d6:26:6d:9e:c7:43:f2:
         7d:ab:c6:21:18:eb:97:c4:d9:23:12:11:f8:9f:94:dd:18:22:
         fd:1b:b4:c1:3b:56:b6:57:8c:c7:60:ce:02:54:6c:46:ec:a6:
         5a:7f:ef:76:97:44:38:e2:27:02:7a:13:d4:3e:07:f7:7b:1f:
         73:c0:97:16:7e:fc:fc:44:d4:b0:d1:89:73:f9:7d:80:1b:79:
         01:45:ff:0c:8e:2e:e5:3c:69:e7:19:02:c4:ea:70:32:6c:0c:
         8e:a7:5d:ab:6d:76:f2:0c:e7:7b:fd:53:7e:5e:8d:d5:05:b3:
         e3:70:fa:3f:52:09:79:1b:ec:ce:10:1a:11:89:88:ff:44:57:
         f8:45:a9:9e:d8:57:c7:9e:19:3c:e3:c5:b5:12:21:6e:10:33:
         06:96:41:bb:36:0f:53:76:be:74:ba:4b:e9:87:d8:14:38:47:
         44:4c:d5:c6:77:ce:e0:ef:e6:75:23:8e:bf:b2:d9:bf:24:13:
         83:a2:2a:be:34:09:ec:e0:b0:6c:84:2a:11:ba:98:41:0f:10:
         3b:26:93:e4:45:d0:4f:67:bc:2a:94:0a:ef:aa:ee:56:d0:de:
         b7:7a:c7:b0:6f:a3:d6:05:51:15:00:73:e3:ac:d9:0a:54:c0:
         73:4b:d0:76
-----BEGIN CERTIFICATE-----
MIIDMTCCAhmgAwIBAgIBATANBgkqhkiG9w0BAQUFADCBkDEpMCcGA1UEAxMgUmF2
aXMgUm9vdCBDZXJ0aWZpY2F0ZSBBdXRob3JpdHkxDzANBgNVBAgTBkxvbmRvbjEL
MAkGA1UEBhMCVUsxIDAeBgkqhkiG9w0BCQEWEXJyYWphbmlAYWN1bnUuY29tMQ4w
DAYDVQQKEwVBY3VudTETMBEGA1UECxMKRGFzaGJvYXJkczAeFw0xMzEwMjkxNTI5
MDFaFw0xODEwMjgxNTI5MDFaMHkxEjAQBgNVBAMTCWxvY2FsaG9zdDEPMA0GA1UE
CBMGTG9uZG9uMQswCQYDVQQGEwJVSzEgMB4GCSqGSIb3DQEJARYRcnJhamFuaUBh
Y3VudS5jb20xDjAMBgNVBAoTBUFjdW51MRMwEQYDVQQLEwpEYXNoYm9hcmRzMIGf
MA0GCSqGSIb3DQEBAQUAA4GNADCBiQKBgQD0I/b3gmLhFF8hXy9ttX3awSyGoWkG
e6Ng97iwf+L1T1VqaITuo8tWVOtC+kYYQL+sX/G+QrMNmurGUs4vW+4W8PF3K8aO
GfDLDDXFbic4lWVyrf+LflGGk3NJRHqMshGrQEPTyiutcpqD2IZP1q5c7LBne7JG
Qrbao2xCFjL/fwIDAQABozAwLjAJBgNVHRMEAjAAMAsGA1UdDwQEAwIF4DAUBgNV
HREEDTALgglsb2NhbGhvc3QwDQYJKoZIhvcNAQEFBQADggEBACNm74YJCCRtvkt6
1iZtnsdD8n2rxiEY65fE2SMSEfiflN0YIv0btME7VrZXjMdgzgJUbEbsplp/73aX
RDjiJwJ6E9Q+B/d7H3PAlxZ+/PxE1LDRiXP5fYAbeQFF/wyOLuU8aecZAsTqcDJs
DI6nXattdvIM53v9U35ejdUFs+Nw+j9SCXkb7M4QGhGJiP9EV/hFqZ7YV8eeGTzj
xbUSIW4QMwaWQbs2D1N2vnS6S+mH2BQ4R0RM1cZ3zuDv5nUjjr+y2b8kE4OiKr40
CezgsGyEKhG6mEEPEDsmk+RF0E9nvCqUCu+q7lbQ3rd6x7Bvo9YFURUAc+Os2QpU
wHNL0HY=
-----END CERTIFICATE-----
